; Function Attrs: nounwind uwtable
define void @jpeg_write_marker(ptr noundef %0, i32 noundef %1, ptr noundef readonly captures(none) %2, i32 noundef %3) local_unnamed_addr #0 {
  %5 = getelementptr inbounds nuw i8, ptr %0, i64 304
  %6 = load i32, ptr %5, align 8, !tbaa !49
  %.not = icmp eq i32 %6, 0
  %7 = getelementptr inbounds nuw i8, ptr %0, i64 36
  %8 = load i32, ptr %7, align 4, !tbaa !37
  %.off = add i32 %8, -101
  %switch = icmp ult i32 %.off, 3
  %or.cond = select i1 %.not, i1 %switch, i1 false
  br i1 %or.cond, label %14, label %._crit_edge27

._crit_edge27:                                    ; preds = %4
  %9 = load ptr, ptr %0, align 8, !tbaa !24
  %10 = getelementptr inbounds nuw i8, ptr %9, i64 40
  store i32 20, ptr %10, align 8, !tbaa !25
  %11 = getelementptr inbounds nuw i8, ptr %9, i64 44
  store i32 %8, ptr %11, align 4, !tbaa !29
  %12 = load ptr, ptr %0, align 8, !tbaa !24
  %13 = load ptr, ptr %12, align 8, !tbaa !30
  tail call void %13(ptr noundef nonnull %0) #4
  br label %14

14:                                               ; preds = %4, %._crit_edge27
  %15 = getelementptr inbounds nuw i8, ptr %0, i64 464
  %16 = load ptr, ptr %15, align 8, !tbaa !67
  %17 = getelementptr inbounds nuw i8, ptr %16, i64 40
  %18 = load ptr, ptr %17, align 8, !tbaa !73
  tail call void %18(ptr noundef nonnull %0, i32 noundef %1, i32 noundef %3) #4
  %19 = load ptr, ptr %15, align 8, !tbaa !67
  %20 = getelementptr inbounds nuw i8, ptr %19, i64 48
  %21 = load ptr, ptr %20, align 8, !tbaa !74
  %.not2324 = icmp eq i32 %3, 0
  br i1 %.not2324, label %._crit_edge, label %.lr.ph

.lr.ph:                                           ; preds = %14, %.lr.ph
  %.026 = phi ptr [ %25, %.lr.ph ], [ %2, %14 ]
  %.01825 = phi i32 [ %22, %.lr.ph ], [ %3, %14 ]
  %22 = add i32 %.01825, -1
  %23 = load i8, ptr %.026, align 1, !tbaa !29
  %24 = zext i8 %23 to i32
  tail call void %21(ptr noundef nonnull %0, i32 noundef %24) #4
  %25 = getelementptr inbounds nuw i8, ptr %.026, i64 1
  %.not23 = icmp eq i32 %22, 0
  br i1 %.not23, label %._crit_edge, label %.lr.ph, !llvm.loop !75

._crit_edge:                                      ; preds = %.lr.ph, %14
  ret void
}